; ModuleID = '16/376.c'
source_filename = "16/376.c"
target datalayout = "e-m:e-p270:32:32-p271:32:32-p272:64:64-i64:64-f80:128-n8:16:32:64-S128"
target triple = "x86_64-pc-linux-gnu"

@.str = private unnamed_addr constant [3 x i8] c"%d\00", align 1

; Function Attrs: noinline nounwind uwtable
define dso_local i32 @main() #0 {
  %1 = alloca i32, align 4
  %2 = alloca i32, align 4
  %3 = alloca i32, align 4
  %4 = alloca i32, align 4
  %5 = alloca i32, align 4
  %6 = alloca i32, align 4
  store i32 0, i32* %1, align 4
  %7 = call i32 (i8*, ...) @__isoc99_scanf(i8* getelementptr inbounds ([3 x i8], [3 x i8]* @.str, i64 0, i64 0), i32* %2)
  %8 = load i32, i32* %2, align 4
  %9 = sdiv i32 %8, 1000
  store i32 %9, i32* %3, align 4
  %10 = load i32, i32* %2, align 4
  %11 = srem i32 %10, 1000
  store i32 %11, i32* %4, align 4
  %12 = load i32, i32* %4, align 4
  %13 = srem i32 %12, 100
  store i32 %13, i32* %5, align 4
  %14 = load i32, i32* %5, align 4
  %15 = srem i32 %14, 10
  store i32 %15, i32* %6, align 4
  %16 = load i32, i32* %4, align 4
  %17 = sdiv i32 %16, 100
  store i32 %17, i32* %4, align 4
  %18 = load i32, i32* %5, align 4
  %19 = sdiv i32 %18, 10
  store i32 %19, i32* %5, align 4
  %20 = load i32, i32* %6, align 4
  %21 = call i32 (i8*, ...) @printf(i8* getelementptr inbounds ([3 x i8], [3 x i8]* @.str, i64 0, i64 0), i32 %20)
  %22 = load i32, i32* %5, align 4
  %23 = icmp ne i32 %22, 0
  %24 = zext i1 %23 to i32
  %25 = load i32, i32* %3, align 4
  %26 = load i32, i32* %4, align 4
  %27 = add nsw i32 %25, %26
  %28 = load i32, i32* %5, align 4
  %29 = add nsw i32 %27, %28
  %30 = icmp ne i32 %29, 0
  br i1 %30, label %31, label %34

31:                                               ; preds = %0
  %32 = load i32, i32* %5, align 4
  %33 = call i32 (i8*, ...) @printf(i8* getelementptr inbounds ([3 x i8], [3 x i8]* @.str, i64 0, i64 0), i32 %32)
  br label %34

34:                                               ; preds = %31, %0
  %35 = load i32, i32* %4, align 4
  %36 = icmp ne i32 %35, 0
  %37 = zext i1 %36 to i32
  %38 = load i32, i32* %3, align 4
  %39 = load i32, i32* %4, align 4
  %40 = add nsw i32 %38, %39
  %41 = icmp ne i32 %40, 0
  br i1 %41, label %42, label %45

42:                                               ; preds = %34
  %43 = load i32, i32* %4, align 4
  %44 = call i32 (i8*, ...) @printf(i8* getelementptr inbounds ([3 x i8], [3 x i8]* @.str, i64 0, i64 0), i32 %43)
  br label %45

45:                                               ; preds = %42, %34
  %46 = load i32, i32* %3, align 4
  %47 = icmp ne i32 %46, 0
  br i1 %47, label %48, label %51

48:                                               ; preds = %45
  %49 = load i32, i32* %3, align 4
  %50 = call i32 (i8*, ...) @printf(i8* getelementptr inbounds ([3 x i8], [3 x i8]* @.str, i64 0, i64 0), i32 %49)
  br label %51

51:                                               ; preds = %48, %45
  %52 = load i32, i32* %1, align 4
  ret i32 %52
}

declare dso_local i32 @__isoc99_scanf(i8*, ...) #1

declare dso_local i32 @printf(i8*, ...) #1


!llvm.module.flags = !{!0}
!llvm.ident = !{!1}

!0 = !{i32 1, !"wchar_size", i32 4}
!1 = !{!"clang version 10.0.0-4ubuntu1 "}
